; ModuleID = '32/288.c'
source_filename = "32/288.c"
target datalayout = "e-m:e-p270:32:32-p271:32:32-p272:64:64-i64:64-f80:128-n8:16:32:64-S128"
target triple = "x86_64-pc-linux-gnu"

@.str = private unnamed_addr constant [4 x i8] c"%d\0A\00", align 1
@.str.1 = private unnamed_addr constant [8 x i8] c"%s\0A%s\0A\0A\00", align 1
@.str.2 = private unnamed_addr constant [4 x i8] c"%s\0A\00", align 1

; Function Attrs: noinline nounwind uwtable
define dso_local void @main() #0 {
  %1 = alloca i32, align 4
  %2 = alloca i32, align 4
  %3 = alloca [100 x [100 x i8]], align 16
  %4 = alloca [100 x [100 x i8]], align 16
  %5 = alloca [100 x [100 x i8]], align 16
  %6 = call i32 (i8*, ...) @__isoc99_scanf(i8* getelementptr inbounds ([4 x i8], [4 x i8]* @.str, i64 0, i64 0), i32* %1)
  store i32 1, i32* %2, align 4
  br label %7

7:                                                ; preds = %38, %0
  %8 = load i32, i32* %2, align 4
  %9 = load i32, i32* %1, align 4
  %10 = icmp sle i32 %8, %9
  br i1 %10, label %11, label %41

11:                                               ; preds = %7
  %12 = load i32, i32* %2, align 4
  %13 = sext i32 %12 to i64
  %14 = getelementptr inbounds [100 x [100 x i8]], [100 x [100 x i8]]* %3, i64 0, i64 %13
  %15 = getelementptr inbounds [100 x i8], [100 x i8]* %14, i64 0, i64 0
  %16 = load i32, i32* %2, align 4
  %17 = sext i32 %16 to i64
  %18 = getelementptr inbounds [100 x [100 x i8]], [100 x [100 x i8]]* %4, i64 0, i64 %17
  %19 = getelementptr inbounds [100 x i8], [100 x i8]* %18, i64 0, i64 0
  %20 = call i32 (i8*, ...) @__isoc99_scanf(i8* getelementptr inbounds ([8 x i8], [8 x i8]* @.str.1, i64 0, i64 0), i8* %15, i8* %19)
  %21 = load i32, i32* %2, align 4
  %22 = sext i32 %21 to i64
  %23 = getelementptr inbounds [100 x [100 x i8]], [100 x [100 x i8]]* %3, i64 0, i64 %22
  %24 = getelementptr inbounds [100 x i8], [100 x i8]* %23, i64 0, i64 0
  %25 = load i32, i32* %2, align 4
  %26 = sext i32 %25 to i64
  %27 = getelementptr inbounds [100 x [100 x i8]], [100 x [100 x i8]]* %4, i64 0, i64 %26
  %28 = getelementptr inbounds [100 x i8], [100 x i8]* %27, i64 0, i64 0
  %29 = load i32, i32* %2, align 4
  %30 = sext i32 %29 to i64
  %31 = getelementptr inbounds [100 x [100 x i8]], [100 x [100 x i8]]* %5, i64 0, i64 %30
  %32 = getelementptr inbounds [100 x i8], [100 x i8]* %31, i64 0, i64 0
  call void @minus(i8* %24, i8* %28, i8* %32)
  %33 = load i32, i32* %2, align 4
  %34 = sext i32 %33 to i64
  %35 = getelementptr inbounds [100 x [100 x i8]], [100 x [100 x i8]]* %5, i64 0, i64 %34
  %36 = getelementptr inbounds [100 x i8], [100 x i8]* %35, i64 0, i64 0
  %37 = call i32 (i8*, ...) @printf(i8* getelementptr inbounds ([4 x i8], [4 x i8]* @.str.2, i64 0, i64 0), i8* %36)
  br label %38

38:                                               ; preds = %11
  %39 = load i32, i32* %2, align 4
  %40 = add nsw i32 %39, 1
  store i32 %40, i32* %2, align 4
  br label %7

41:                                               ; preds = %7
  ret void
}

declare dso_local i32 @__isoc99_scanf(i8*, ...) #1

; Function Attrs: noinline nounwind uwtable
define dso_local void @minus(i8* %0, i8* %1, i8* %2) #0 {
  %4 = alloca i8*, align 8
  %5 = alloca i8*, align 8
  %6 = alloca i8*, align 8
  %7 = alloca i32, align 4
  %8 = alloca i32, align 4
  %9 = alloca i32, align 4
  %10 = alloca i32, align 4
  %11 = alloca i32, align 4
  %12 = alloca i32, align 4
  %13 = alloca i8, align 1
  store i8* %0, i8** %4, align 8
  store i8* %1, i8** %5, align 8
  store i8* %2, i8** %6, align 8
  store i32 0, i32* %9, align 4
  store i32 0, i32* %11, align 4
  %14 = load i8*, i8** %4, align 8
  %15 = call i64 @strlen(i8* %14) #3
  %16 = sub i64 %15, 1
  %17 = trunc i64 %16 to i32
  store i32 %17, i32* %7, align 4
  %18 = load i8*, i8** %5, align 8
  %19 = call i64 @strlen(i8* %18) #3
  %20 = sub i64 %19, 1
  %21 = trunc i64 %20 to i32
  store i32 %21, i32* %8, align 4
  br label %22

22:                                               ; preds = %83, %3
  %23 = load i32, i32* %7, align 4
  %24 = icmp sge i32 %23, 0
  br i1 %24, label %25, label %84

25:                                               ; preds = %22
  %26 = load i32, i32* %8, align 4
  %27 = icmp slt i32 %26, 0
  br i1 %27, label %28, label %37

28:                                               ; preds = %25
  %29 = load i8*, i8** %4, align 8
  %30 = load i32, i32* %7, align 4
  %31 = add nsw i32 %30, -1
  store i32 %31, i32* %7, align 4
  %32 = sext i32 %30 to i64
  %33 = getelementptr inbounds i8, i8* %29, i64 %32
  %34 = load i8, i8* %33, align 1
  %35 = sext i8 %34 to i32
  %36 = sub nsw i32 %35, 48
  store i32 %36, i32* %10, align 4
  br label %53

37:                                               ; preds = %25
  %38 = load i8*, i8** %4, align 8
  %39 = load i32, i32* %7, align 4
  %40 = add nsw i32 %39, -1
  store i32 %40, i32* %7, align 4
  %41 = sext i32 %39 to i64
  %42 = getelementptr inbounds i8, i8* %38, i64 %41
  %43 = load i8, i8* %42, align 1
  %44 = sext i8 %43 to i32
  %45 = load i8*, i8** %5, align 8
  %46 = load i32, i32* %8, align 4
  %47 = add nsw i32 %46, -1
  store i32 %47, i32* %8, align 4
  %48 = sext i32 %46 to i64
  %49 = getelementptr inbounds i8, i8* %45, i64 %48
  %50 = load i8, i8* %49, align 1
  %51 = sext i8 %50 to i32
  %52 = sub nsw i32 %44, %51
  store i32 %52, i32* %10, align 4
  br label %53

53:                                               ; preds = %37, %28
  %54 = load i32, i32* %10, align 4
  %55 = load i32, i32* %11, align 4
  %56 = sub nsw i32 %54, %55
  %57 = add nsw i32 %56, 48
  %58 = trunc i32 %57 to i8
  %59 = load i8*, i8** %6, align 8
  %60 = load i32, i32* %9, align 4
  %61 = add nsw i32 %60, 1
  store i32 %61, i32* %9, align 4
  %62 = sext i32 %60 to i64
  %63 = getelementptr inbounds i8, i8* %59, i64 %62
  store i8 %58, i8* %63, align 1
  %64 = load i8*, i8** %6, align 8
  %65 = load i32, i32* %9, align 4
  %66 = sub nsw i32 %65, 1
  %67 = sext i32 %66 to i64
  %68 = getelementptr inbounds i8, i8* %64, i64 %67
  %69 = load i8, i8* %68, align 1
  %70 = sext i8 %69 to i32
  %71 = icmp slt i32 %70, 48
  br i1 %71, label %72, label %82

72:                                               ; preds = %53
  %73 = load i8*, i8** %6, align 8
  %74 = load i32, i32* %9, align 4
  %75 = sub nsw i32 %74, 1
  %76 = sext i32 %75 to i64
  %77 = getelementptr inbounds i8, i8* %73, i64 %76
  %78 = load i8, i8* %77, align 1
  %79 = sext i8 %78 to i32
  %80 = add nsw i32 %79, 10
  %81 = trunc i32 %80 to i8
  store i8 %81, i8* %77, align 1
  store i32 1, i32* %11, align 4
  br label %83

82:                                               ; preds = %53
  store i32 0, i32* %11, align 4
  br label %83

83:                                               ; preds = %82, %72
  br label %22

84:                                               ; preds = %22
  br label %85

85:                                               ; preds = %93, %84
  %86 = load i8*, i8** %6, align 8
  %87 = load i32, i32* %9, align 4
  %88 = sext i32 %87 to i64
  %89 = getelementptr inbounds i8, i8* %86, i64 %88
  %90 = load i8, i8* %89, align 1
  %91 = sext i8 %90 to i32
  %92 = icmp eq i32 %91, 0
  br i1 %92, label %93, label %96

93:                                               ; preds = %85
  %94 = load i32, i32* %9, align 4
  %95 = add nsw i32 %94, -1
  store i32 %95, i32* %9, align 4
  br label %85

96:                                               ; preds = %85
  br label %97

97:                                               ; preds = %105, %96
  %98 = load i8*, i8** %6, align 8
  %99 = load i32, i32* %9, align 4
  %100 = sext i32 %99 to i64
  %101 = getelementptr inbounds i8, i8* %98, i64 %100
  %102 = load i8, i8* %101, align 1
  %103 = sext i8 %102 to i32
  %104 = icmp eq i32 %103, 48
  br i1 %104, label %105, label %112

105:                                              ; preds = %97
  %106 = load i8*, i8** %6, align 8
  %107 = load i32, i32* %9, align 4
  %108 = sext i32 %107 to i64
  %109 = getelementptr inbounds i8, i8* %106, i64 %108
  store i8 0, i8* %109, align 1
  %110 = load i32, i32* %9, align 4
  %111 = add nsw i32 %110, -1
  store i32 %111, i32* %9, align 4
  br label %97

112:                                              ; preds = %97
  store i32 0, i32* %12, align 4
  br label %113

113:                                              ; preds = %142, %112
  %114 = load i32, i32* %12, align 4
  %115 = load i32, i32* %9, align 4
  %116 = sdiv i32 %115, 2
  %117 = icmp sle i32 %114, %116
  br i1 %117, label %118, label %145

118:                                              ; preds = %113
  %119 = load i8*, i8** %6, align 8
  %120 = load i32, i32* %12, align 4
  %121 = sext i32 %120 to i64
  %122 = getelementptr inbounds i8, i8* %119, i64 %121
  %123 = load i8, i8* %122, align 1
  store i8 %123, i8* %13, align 1
  %124 = load i8*, i8** %6, align 8
  %125 = load i32, i32* %9, align 4
  %126 = load i32, i32* %12, align 4
  %127 = sub nsw i32 %125, %126
  %128 = sext i32 %127 to i64
  %129 = getelementptr inbounds i8, i8* %124, i64 %128
  %130 = load i8, i8* %129, align 1
  %131 = load i8*, i8** %6, align 8
  %132 = load i32, i32* %12, align 4
  %133 = sext i32 %132 to i64
  %134 = getelementptr inbounds i8, i8* %131, i64 %133
  store i8 %130, i8* %134, align 1
  %135 = load i8, i8* %13, align 1
  %136 = load i8*, i8** %6, align 8
  %137 = load i32, i32* %9, align 4
  %138 = load i32, i32* %12, align 4
  %139 = sub nsw i32 %137, %138
  %140 = sext i32 %139 to i64
  %141 = getelementptr inbounds i8, i8* %136, i64 %140
  store i8 %135, i8* %141, align 1
  br label %142

142:                                              ; preds = %118
  %143 = load i32, i32* %12, align 4
  %144 = add nsw i32 %143, 1
  store i32 %144, i32* %12, align 4
  br label %113

145:                                              ; preds = %113
  ret void
}

declare dso_local i32 @printf(i8*, ...) #1

; Function Attrs: nounwind readonly
declare dso_local i64 @strlen(i8*) #2


!llvm.module.flags = !{!0}
!llvm.ident = !{!1}

!0 = !{i32 1, !"wchar_size", i32 4}
!1 = !{!"clang version 10.0.0-4ubuntu1 "}
